target datalayout = "e-m:e-p270:32:32-p271:32:32-p272:64:64-i64:64-i128:128-f80:128-n8:16:32:64-S128"
target triple = "x86_64-pc-linux-gnu"

; Function Attrs: mustprogress nounwind ssp uwtable
define internal void @_ZN6open3d4core6kernelL26CPULogicalXorElementKernelIsbEEvPKvS4_Pv(ptr noundef %0, ptr noundef %1, ptr noundef %2) #3 {
  %4 = alloca ptr, align 8
  %5 = alloca ptr, align 8
  %6 = alloca ptr, align 8
  store ptr %0, ptr %4, align 8, !tbaa !17
  store ptr %1, ptr %5, align 8, !tbaa !17
  store ptr %2, ptr %6, align 8, !tbaa !17
  %7 = load ptr, ptr %4, align 8, !tbaa !17
  %8 = load i16, ptr %7, align 2, !tbaa !345
  %9 = icmp ne i16 %8, 0
  %10 = zext i1 %9 to i32
  %11 = load ptr, ptr %5, align 8, !tbaa !17
  %12 = load i16, ptr %11, align 2, !tbaa !345
  %13 = icmp ne i16 %12, 0
  %14 = zext i1 %13 to i32
  %15 = icmp ne i32 %10, %14
  %16 = load ptr, ptr %6, align 8, !tbaa !17
  %17 = zext i1 %15 to i8
  store i8 %17, ptr %16, align 1, !tbaa !131
  ret void
}